; Function Attrs: nofree null_pointer_is_valid sspstrong uwtable
define internal void @decode_flow_meas_max_value(ptr noundef %0, i16 noundef zeroext %1) #1 {
  %3 = add i16 %1, 1
  %or.cond = icmp ult i16 %3, 2
  br i1 %or.cond, label %4, label %6

4:                                                ; preds = %2
  %5 = tail call i32 (ptr, i64, i32, i64, ptr, ...) @__snprintf_chk(ptr noundef %0, i64 noundef 240, i32 noundef 2, i64 noundef -1, ptr noundef nonnull @.str.104)
  br label %11

6:                                                ; preds = %2
  %7 = zext i16 %1 to i32
  %8 = uitofp i16 %1 to double
  %9 = fdiv double %8, 1.000000e+01
  %10 = tail call i32 (ptr, i64, i32, i64, ptr, ...) @__snprintf_chk(ptr noundef %0, i64 noundef 240, i32 noundef 2, i64 noundef -1, ptr noundef nonnull @.str.122, i32 noundef %7, double noundef %9)
  br label %11

11:                                               ; preds = %6, %4
  ret void
}